; ModuleID = '46/189.c'
source_filename = "46/189.c"
target datalayout = "e-m:e-p270:32:32-p271:32:32-p272:64:64-i64:64-f80:128-n8:16:32:64-S128"
target triple = "x86_64-pc-linux-gnu"

@.str = private unnamed_addr constant [6 x i8] c"%d %d\00", align 1
@.str.1 = private unnamed_addr constant [3 x i8] c"%d\00", align 1
@.str.2 = private unnamed_addr constant [4 x i8] c"%d\0A\00", align 1

; Function Attrs: noinline nounwind uwtable
define dso_local i32 @main() #0 {
  %1 = alloca i32, align 4
  %2 = alloca i32, align 4
  %3 = alloca i32, align 4
  %4 = alloca [100 x [100 x i32]], align 16
  %5 = alloca i32, align 4
  %6 = alloca i32, align 4
  %7 = alloca i32, align 4
  %8 = alloca i32, align 4
  %9 = alloca i32, align 4
  %10 = alloca i32, align 4
  %11 = alloca i32, align 4
  %12 = alloca i32, align 4
  store i32 0, i32* %1, align 4
  %13 = call i32 (i8*, ...) @__isoc99_scanf(i8* getelementptr inbounds ([6 x i8], [6 x i8]* @.str, i64 0, i64 0), i32* %2, i32* %3)
  store i32 0, i32* %5, align 4
  br label %14

14:                                               ; preds = %35, %0
  %15 = load i32, i32* %5, align 4
  %16 = load i32, i32* %2, align 4
  %17 = icmp slt i32 %15, %16
  br i1 %17, label %18, label %38

18:                                               ; preds = %14
  store i32 0, i32* %6, align 4
  br label %19

19:                                               ; preds = %31, %18
  %20 = load i32, i32* %6, align 4
  %21 = load i32, i32* %3, align 4
  %22 = icmp slt i32 %20, %21
  br i1 %22, label %23, label %34

23:                                               ; preds = %19
  %24 = load i32, i32* %5, align 4
  %25 = sext i32 %24 to i64
  %26 = getelementptr inbounds [100 x [100 x i32]], [100 x [100 x i32]]* %4, i64 0, i64 %25
  %27 = load i32, i32* %6, align 4
  %28 = sext i32 %27 to i64
  %29 = getelementptr inbounds [100 x i32], [100 x i32]* %26, i64 0, i64 %28
  %30 = call i32 (i8*, ...) @__isoc99_scanf(i8* getelementptr inbounds ([3 x i8], [3 x i8]* @.str.1, i64 0, i64 0), i32* %29)
  br label %31

31:                                               ; preds = %23
  %32 = load i32, i32* %6, align 4
  %33 = add nsw i32 %32, 1
  store i32 %33, i32* %6, align 4
  br label %19

34:                                               ; preds = %19
  br label %35

35:                                               ; preds = %34
  %36 = load i32, i32* %5, align 4
  %37 = add nsw i32 %36, 1
  store i32 %37, i32* %5, align 4
  br label %14

38:                                               ; preds = %14
  store i32 0, i32* %9, align 4
  %39 = load i32, i32* %2, align 4
  %40 = sub nsw i32 %39, 1
  store i32 %40, i32* %10, align 4
  store i32 0, i32* %11, align 4
  %41 = load i32, i32* %3, align 4
  %42 = sub nsw i32 %41, 1
  store i32 %42, i32* %12, align 4
  br label %43

43:                                               ; preds = %169, %38
  %44 = load i32, i32* %9, align 4
  %45 = load i32, i32* %10, align 4
  %46 = icmp sle i32 %44, %45
  br i1 %46, label %47, label %51

47:                                               ; preds = %43
  %48 = load i32, i32* %11, align 4
  %49 = load i32, i32* %12, align 4
  %50 = icmp sle i32 %48, %49
  br label %51

51:                                               ; preds = %47, %43
  %52 = phi i1 [ false, %43 ], [ %50, %47 ]
  br i1 %52, label %53, label %170

53:                                               ; preds = %51
  %54 = load i32, i32* %9, align 4
  %55 = load i32, i32* %10, align 4
  %56 = icmp sle i32 %54, %55
  br i1 %56, label %57, label %82

57:                                               ; preds = %53
  %58 = load i32, i32* %11, align 4
  %59 = load i32, i32* %12, align 4
  %60 = icmp sle i32 %58, %59
  br i1 %60, label %61, label %82

61:                                               ; preds = %57
  %62 = load i32, i32* %11, align 4
  store i32 %62, i32* %8, align 4
  br label %63

63:                                               ; preds = %76, %61
  %64 = load i32, i32* %8, align 4
  %65 = load i32, i32* %12, align 4
  %66 = icmp sle i32 %64, %65
  br i1 %66, label %67, label %79

67:                                               ; preds = %63
  %68 = load i32, i32* %9, align 4
  %69 = sext i32 %68 to i64
  %70 = getelementptr inbounds [100 x [100 x i32]], [100 x [100 x i32]]* %4, i64 0, i64 %69
  %71 = load i32, i32* %8, align 4
  %72 = sext i32 %71 to i64
  %73 = getelementptr inbounds [100 x i32], [100 x i32]* %70, i64 0, i64 %72
  %74 = load i32, i32* %73, align 4
  %75 = call i32 (i8*, ...) @printf(i8* getelementptr inbounds ([4 x i8], [4 x i8]* @.str.2, i64 0, i64 0), i32 %74)
  br label %76

76:                                               ; preds = %67
  %77 = load i32, i32* %8, align 4
  %78 = add nsw i32 %77, 1
  store i32 %78, i32* %8, align 4
  br label %63

79:                                               ; preds = %63
  %80 = load i32, i32* %9, align 4
  %81 = add nsw i32 %80, 1
  store i32 %81, i32* %9, align 4
  br label %82

82:                                               ; preds = %79, %57, %53
  %83 = load i32, i32* %9, align 4
  %84 = load i32, i32* %10, align 4
  %85 = icmp sle i32 %83, %84
  br i1 %85, label %86, label %111

86:                                               ; preds = %82
  %87 = load i32, i32* %11, align 4
  %88 = load i32, i32* %12, align 4
  %89 = icmp sle i32 %87, %88
  br i1 %89, label %90, label %111

90:                                               ; preds = %86
  %91 = load i32, i32* %9, align 4
  store i32 %91, i32* %7, align 4
  br label %92

92:                                               ; preds = %105, %90
  %93 = load i32, i32* %7, align 4
  %94 = load i32, i32* %10, align 4
  %95 = icmp sle i32 %93, %94
  br i1 %95, label %96, label %108

96:                                               ; preds = %92
  %97 = load i32, i32* %7, align 4
  %98 = sext i32 %97 to i64
  %99 = getelementptr inbounds [100 x [100 x i32]], [100 x [100 x i32]]* %4, i64 0, i64 %98
  %100 = load i32, i32* %12, align 4
  %101 = sext i32 %100 to i64
  %102 = getelementptr inbounds [100 x i32], [100 x i32]* %99, i64 0, i64 %101
  %103 = load i32, i32* %102, align 4
  %104 = call i32 (i8*, ...) @printf(i8* getelementptr inbounds ([4 x i8], [4 x i8]* @.str.2, i64 0, i64 0), i32 %103)
  br label %105

105:                                              ; preds = %96
  %106 = load i32, i32* %7, align 4
  %107 = add nsw i32 %106, 1
  store i32 %107, i32* %7, align 4
  br label %92

108:                                              ; preds = %92
  %109 = load i32, i32* %12, align 4
  %110 = sub nsw i32 %109, 1
  store i32 %110, i32* %12, align 4
  br label %111

111:                                              ; preds = %108, %86, %82
  %112 = load i32, i32* %9, align 4
  %113 = load i32, i32* %10, align 4
  %114 = icmp sle i32 %112, %113
  br i1 %114, label %115, label %140

115:                                              ; preds = %111
  %116 = load i32, i32* %11, align 4
  %117 = load i32, i32* %12, align 4
  %118 = icmp sle i32 %116, %117
  br i1 %118, label %119, label %140

119:                                              ; preds = %115
  %120 = load i32, i32* %12, align 4
  store i32 %120, i32* %8, align 4
  br label %121

121:                                              ; preds = %134, %119
  %122 = load i32, i32* %8, align 4
  %123 = load i32, i32* %11, align 4
  %124 = icmp sge i32 %122, %123
  br i1 %124, label %125, label %137

125:                                              ; preds = %121
  %126 = load i32, i32* %10, align 4
  %127 = sext i32 %126 to i64
  %128 = getelementptr inbounds [100 x [100 x i32]], [100 x [100 x i32]]* %4, i64 0, i64 %127
  %129 = load i32, i32* %8, align 4
  %130 = sext i32 %129 to i64
  %131 = getelementptr inbounds [100 x i32], [100 x i32]* %128, i64 0, i64 %130
  %132 = load i32, i32* %131, align 4
  %133 = call i32 (i8*, ...) @printf(i8* getelementptr inbounds ([4 x i8], [4 x i8]* @.str.2, i64 0, i64 0), i32 %132)
  br label %134

134:                                              ; preds = %125
  %135 = load i32, i32* %8, align 4
  %136 = add nsw i32 %135, -1
  store i32 %136, i32* %8, align 4
  br label %121

137:                                              ; preds = %121
  %138 = load i32, i32* %10, align 4
  %139 = sub nsw i32 %138, 1
  store i32 %139, i32* %10, align 4
  br label %140

140:                                              ; preds = %137, %115, %111
  %141 = load i32, i32* %9, align 4
  %142 = load i32, i32* %10, align 4
  %143 = icmp sle i32 %141, %142
  br i1 %143, label %144, label %169

144:                                              ; preds = %140
  %145 = load i32, i32* %11, align 4
  %146 = load i32, i32* %12, align 4
  %147 = icmp sle i32 %145, %146
  br i1 %147, label %148, label %169

148:                                              ; preds = %144
  %149 = load i32, i32* %10, align 4
  store i32 %149, i32* %7, align 4
  br label %150

150:                                              ; preds = %163, %148
  %151 = load i32, i32* %7, align 4
  %152 = load i32, i32* %9, align 4
  %153 = icmp sge i32 %151, %152
  br i1 %153, label %154, label %166

154:                                              ; preds = %150
  %155 = load i32, i32* %7, align 4
  %156 = sext i32 %155 to i64
  %157 = getelementptr inbounds [100 x [100 x i32]], [100 x [100 x i32]]* %4, i64 0, i64 %156
  %158 = load i32, i32* %11, align 4
  %159 = sext i32 %158 to i64
  %160 = getelementptr inbounds [100 x i32], [100 x i32]* %157, i64 0, i64 %159
  %161 = load i32, i32* %160, align 4
  %162 = call i32 (i8*, ...) @printf(i8* getelementptr inbounds ([4 x i8], [4 x i8]* @.str.2, i64 0, i64 0), i32 %161)
  br label %163

163:                                              ; preds = %154
  %164 = load i32, i32* %7, align 4
  %165 = add nsw i32 %164, -1
  store i32 %165, i32* %7, align 4
  br label %150

166:                                              ; preds = %150
  %167 = load i32, i32* %11, align 4
  %168 = add nsw i32 %167, 1
  store i32 %168, i32* %11, align 4
  br label %169

169:                                              ; preds = %166, %144, %140
  br label %43

170:                                              ; preds = %51
  ret i32 0
}

declare dso_local i32 @__isoc99_scanf(i8*, ...) #1

declare dso_local i32 @printf(i8*, ...) #1


!llvm.module.flags = !{!0}
!llvm.ident = !{!1}

!0 = !{i32 1, !"wchar_size", i32 4}
!1 = !{!"clang version 10.0.0-4ubuntu1 "}
